(dp0
S'session'
p1
L506489239123360055547L
sS'cookie'
p2
S'DQAAAHwAAADWBNLybIqAArb9vP3EyJhBF3nMtxLVbvjTOiCI3A1jADyAEiXD7x28XeixanhOoV2rTwCwczwRE_uU7tEF5x9lP3Y68S-tB_mbQK4IW0LLGNu-9eGABiR6s0MmOjuW0cguUPZw1uisG_YhfgeF2mH8Pd_VM5v93KSEhmEqMzoNfQ'
p3
s.